; Function Attrs: mustprogress nounwind uwtable
define hidden void @_ZN10JavaThread21print_active_stack_onEP12outputStream(ptr noundef nonnull align 8 dereferenceable(1800) %0, ptr noundef %1) local_unnamed_addr #0 align 2 {
  %3 = getelementptr inbounds i8, ptr %0, i64 1336
  %.08.i.i = load ptr, ptr %3, align 8
  %.not9.i.i = icmp eq ptr %.08.i.i, null
  br i1 %.not9.i.i, label %.loopexit, label %.lr.ph.i.i

.lr.ph.i.i:                                       ; preds = %2, %6
  %.010.i.i = phi ptr [ %.0.i.i, %6 ], [ %.08.i.i, %2 ]
  %4 = getelementptr inbounds i8, ptr %.010.i.i, i64 32
  %5 = load i32, ptr %4, align 8
  %.not7.i.not.i = icmp eq i32 %5, 0
  br i1 %.not7.i.not.i, label %6, label %_ZNK10JavaThread18is_vthread_mountedEv.exit

6:                                                ; preds = %.lr.ph.i.i
  %7 = getelementptr inbounds i8, ptr %.010.i.i, i64 8
  %.0.i.i = load ptr, ptr %7, align 8
  %.not.i.i = icmp eq ptr %.0.i.i, null
  br i1 %.not.i.i, label %.loopexit, label %.lr.ph.i.i, !llvm.loop !50

_ZNK10JavaThread18is_vthread_mountedEv.exit:      ; preds = %.lr.ph.i.i
  tail call void @_ZN10JavaThread22print_vthread_stack_onEP12outputStream(ptr noundef nonnull align 8 dereferenceable(1800) %0, ptr noundef %1)
  br label %8

.loopexit:                                        ; preds = %6, %2
  tail call void @_ZN10JavaThread14print_stack_onEP12outputStream(ptr noundef nonnull align 8 dereferenceable(1800) %0, ptr noundef %1)
  br label %8

8:                                                ; preds = %.loopexit, %_ZNK10JavaThread18is_vthread_mountedEv.exit
  ret void
}